; ModuleID = '38/1440.c'
source_filename = "38/1440.c"
target datalayout = "e-m:e-p270:32:32-p271:32:32-p272:64:64-i64:64-f80:128-n8:16:32:64-S128"
target triple = "x86_64-pc-linux-gnu"

@.str = private unnamed_addr constant [3 x i8] c"%d\00", align 1
@.str.1 = private unnamed_addr constant [4 x i8] c"%lf\00", align 1
@.str.2 = private unnamed_addr constant [7 x i8] c"%.5lf\0A\00", align 1

; Function Attrs: noinline nounwind uwtable
define dso_local i32 @main() #0 {
  %1 = alloca i32, align 4
  %2 = alloca i32, align 4
  %3 = alloca i32, align 4
  %4 = alloca i32, align 4
  %5 = alloca [1000 x i32], align 16
  %6 = alloca [1000 x [1000 x double]], align 16
  %7 = alloca [1000 x double], align 16
  %8 = alloca [1000 x double], align 16
  store i32 0, i32* %1, align 4
  %9 = call i32 (i8*, ...) @__isoc99_scanf(i8* getelementptr inbounds ([3 x i8], [3 x i8]* @.str, i64 0, i64 0), i32* %2)
  store i32 0, i32* %3, align 4
  br label %10

10:                                               ; preds = %53, %0
  %11 = load i32, i32* %3, align 4
  %12 = load i32, i32* %2, align 4
  %13 = icmp slt i32 %11, %12
  br i1 %13, label %14, label %56

14:                                               ; preds = %10
  %15 = load i32, i32* %3, align 4
  %16 = sext i32 %15 to i64
  %17 = getelementptr inbounds [1000 x i32], [1000 x i32]* %5, i64 0, i64 %16
  %18 = call i32 (i8*, ...) @__isoc99_scanf(i8* getelementptr inbounds ([3 x i8], [3 x i8]* @.str, i64 0, i64 0), i32* %17)
  store i32 0, i32* %4, align 4
  br label %19

19:                                               ; preds = %49, %14
  %20 = load i32, i32* %4, align 4
  %21 = load i32, i32* %3, align 4
  %22 = sext i32 %21 to i64
  %23 = getelementptr inbounds [1000 x i32], [1000 x i32]* %5, i64 0, i64 %22
  %24 = load i32, i32* %23, align 4
  %25 = icmp slt i32 %20, %24
  br i1 %25, label %26, label %52

26:                                               ; preds = %19
  %27 = load i32, i32* %3, align 4
  %28 = sext i32 %27 to i64
  %29 = getelementptr inbounds [1000 x [1000 x double]], [1000 x [1000 x double]]* %6, i64 0, i64 %28
  %30 = load i32, i32* %4, align 4
  %31 = sext i32 %30 to i64
  %32 = getelementptr inbounds [1000 x double], [1000 x double]* %29, i64 0, i64 %31
  %33 = call i32 (i8*, ...) @__isoc99_scanf(i8* getelementptr inbounds ([4 x i8], [4 x i8]* @.str.1, i64 0, i64 0), double* %32)
  %34 = load i32, i32* %3, align 4
  %35 = sext i32 %34 to i64
  %36 = getelementptr inbounds [1000 x double], [1000 x double]* %8, i64 0, i64 %35
  %37 = load double, double* %36, align 8
  %38 = load i32, i32* %3, align 4
  %39 = sext i32 %38 to i64
  %40 = getelementptr inbounds [1000 x [1000 x double]], [1000 x [1000 x double]]* %6, i64 0, i64 %39
  %41 = load i32, i32* %4, align 4
  %42 = sext i32 %41 to i64
  %43 = getelementptr inbounds [1000 x double], [1000 x double]* %40, i64 0, i64 %42
  %44 = load double, double* %43, align 8
  %45 = fadd double %37, %44
  %46 = load i32, i32* %3, align 4
  %47 = sext i32 %46 to i64
  %48 = getelementptr inbounds [1000 x double], [1000 x double]* %8, i64 0, i64 %47
  store double %45, double* %48, align 8
  br label %49

49:                                               ; preds = %26
  %50 = load i32, i32* %4, align 4
  %51 = add nsw i32 %50, 1
  store i32 %51, i32* %4, align 4
  br label %19

52:                                               ; preds = %19
  br label %53

53:                                               ; preds = %52
  %54 = load i32, i32* %3, align 4
  %55 = add nsw i32 %54, 1
  store i32 %55, i32* %3, align 4
  br label %10

56:                                               ; preds = %10
  store i32 0, i32* %3, align 4
  br label %57

57:                                               ; preds = %139, %56
  %58 = load i32, i32* %3, align 4
  %59 = load i32, i32* %2, align 4
  %60 = icmp slt i32 %58, %59
  br i1 %60, label %61, label %142

61:                                               ; preds = %57
  %62 = load i32, i32* %3, align 4
  %63 = sext i32 %62 to i64
  %64 = getelementptr inbounds [1000 x double], [1000 x double]* %8, i64 0, i64 %63
  %65 = load double, double* %64, align 8
  %66 = load i32, i32* %3, align 4
  %67 = sext i32 %66 to i64
  %68 = getelementptr inbounds [1000 x i32], [1000 x i32]* %5, i64 0, i64 %67
  %69 = load i32, i32* %68, align 4
  %70 = sitofp i32 %69 to double
  %71 = fdiv double %65, %70
  %72 = load i32, i32* %3, align 4
  %73 = sext i32 %72 to i64
  %74 = getelementptr inbounds [1000 x double], [1000 x double]* %8, i64 0, i64 %73
  store double %71, double* %74, align 8
  store i32 0, i32* %4, align 4
  br label %75

75:                                               ; preds = %116, %61
  %76 = load i32, i32* %4, align 4
  %77 = load i32, i32* %3, align 4
  %78 = sext i32 %77 to i64
  %79 = getelementptr inbounds [1000 x i32], [1000 x i32]* %5, i64 0, i64 %78
  %80 = load i32, i32* %79, align 4
  %81 = icmp slt i32 %76, %80
  br i1 %81, label %82, label %119

82:                                               ; preds = %75
  %83 = load i32, i32* %3, align 4
  %84 = sext i32 %83 to i64
  %85 = getelementptr inbounds [1000 x double], [1000 x double]* %7, i64 0, i64 %84
  %86 = load double, double* %85, align 8
  %87 = load i32, i32* %3, align 4
  %88 = sext i32 %87 to i64
  %89 = getelementptr inbounds [1000 x [1000 x double]], [1000 x [1000 x double]]* %6, i64 0, i64 %88
  %90 = load i32, i32* %4, align 4
  %91 = sext i32 %90 to i64
  %92 = getelementptr inbounds [1000 x double], [1000 x double]* %89, i64 0, i64 %91
  %93 = load double, double* %92, align 8
  %94 = load i32, i32* %3, align 4
  %95 = sext i32 %94 to i64
  %96 = getelementptr inbounds [1000 x double], [1000 x double]* %8, i64 0, i64 %95
  %97 = load double, double* %96, align 8
  %98 = fsub double %93, %97
  %99 = load i32, i32* %3, align 4
  %100 = sext i32 %99 to i64
  %101 = getelementptr inbounds [1000 x [1000 x double]], [1000 x [1000 x double]]* %6, i64 0, i64 %100
  %102 = load i32, i32* %4, align 4
  %103 = sext i32 %102 to i64
  %104 = getelementptr inbounds [1000 x double], [1000 x double]* %101, i64 0, i64 %103
  %105 = load double, double* %104, align 8
  %106 = load i32, i32* %3, align 4
  %107 = sext i32 %106 to i64
  %108 = getelementptr inbounds [1000 x double], [1000 x double]* %8, i64 0, i64 %107
  %109 = load double, double* %108, align 8
  %110 = fsub double %105, %109
  %111 = fmul double %98, %110
  %112 = fadd double %86, %111
  %113 = load i32, i32* %3, align 4
  %114 = sext i32 %113 to i64
  %115 = getelementptr inbounds [1000 x double], [1000 x double]* %7, i64 0, i64 %114
  store double %112, double* %115, align 8
  br label %116

116:                                              ; preds = %82
  %117 = load i32, i32* %4, align 4
  %118 = add nsw i32 %117, 1
  store i32 %118, i32* %4, align 4
  br label %75

119:                                              ; preds = %75
  %120 = load i32, i32* %3, align 4
  %121 = sext i32 %120 to i64
  %122 = getelementptr inbounds [1000 x double], [1000 x double]* %7, i64 0, i64 %121
  %123 = load double, double* %122, align 8
  %124 = load i32, i32* %3, align 4
  %125 = sext i32 %124 to i64
  %126 = getelementptr inbounds [1000 x i32], [1000 x i32]* %5, i64 0, i64 %125
  %127 = load i32, i32* %126, align 4
  %128 = sitofp i32 %127 to double
  %129 = fdiv double %123, %128
  %130 = call double @sqrt(double %129) #3
  %131 = load i32, i32* %3, align 4
  %132 = sext i32 %131 to i64
  %133 = getelementptr inbounds [1000 x double], [1000 x double]* %7, i64 0, i64 %132
  store double %130, double* %133, align 8
  %134 = load i32, i32* %3, align 4
  %135 = sext i32 %134 to i64
  %136 = getelementptr inbounds [1000 x double], [1000 x double]* %7, i64 0, i64 %135
  %137 = load double, double* %136, align 8
  %138 = call i32 (i8*, ...) @printf(i8* getelementptr inbounds ([7 x i8], [7 x i8]* @.str.2, i64 0, i64 0), double %137)
  br label %139

139:                                              ; preds = %119
  %140 = load i32, i32* %3, align 4
  %141 = add nsw i32 %140, 1
  store i32 %141, i32* %3, align 4
  br label %57

142:                                              ; preds = %57
  ret i32 0
}

declare dso_local i32 @__isoc99_scanf(i8*, ...) #1

; Function Attrs: nounwind
declare dso_local double @sqrt(double) #2

declare dso_local i32 @printf(i8*, ...) #1


!llvm.module.flags = !{!0}
!llvm.ident = !{!1}

!0 = !{i32 1, !"wchar_size", i32 4}
!1 = !{!"clang version 10.0.0-4ubuntu1 "}
